EXPORTS
    DllMain@12 @1
    _ZN14PNPZ80Hardware10getVersionEv @2
    _ZN14PNPZ80Hardware17getPNPZ80InstanceEv @3
    _ZN14PNPZ80Hardware17registerIOAddressEh @4
    _ZN14PNPZ80Hardware17setPNPZ80InstanceEP14PNPZ80Instance @5
    _ZN14PNPZ80Hardware5inputEhh @6
    _ZN14PNPZ80Hardware6outputEhPh @7
    _ZN14PNPZ80Hardware7getNameEv @8
    _ZN14PNPZ80HardwareC1ESsSs @9
    _ZN14PNPZ80HardwareC2ESsSs @10
    _ZN14PNPZ80HardwareD0Ev @11
    _ZN14PNPZ80HardwareD1Ev @12
    _ZN14PNPZ80HardwareD2Ev @13
    _ZN14PNPZ80Instance12getSimulatorEv @14
    _ZN14PNPZ80Instance14attachHardwareEP14PNPZ80Hardware @15
    _ZN14PNPZ80Instance15loadRAMFromFileEPKc @16
    _ZN14PNPZ80Instance17loadRAMFromBufferEPht @17
    _ZN14PNPZ80Instance17registerIOAddressEhP14PNPZ80Hardware @18
    _ZN14PNPZ80Instance4initEv @19
    _ZN14PNPZ80Instance5resetEv @20
    _ZN14PNPZ80Instance6getRAMEv @21
    _ZN14PNPZ80Instance7processEv @22
    _ZN14PNPZ80InstanceC1Ev @23
    _ZN14PNPZ80InstanceC2Ev @24
    _ZN14PNPZ80InstanceD0Ev @25
    _ZN14PNPZ80InstanceD1Ev @26
    _ZN14PNPZ80InstanceD2Ev @27
    _ZN15PNPZ80Simulator10getRegPairEhh @28
    _ZN15PNPZ80Simulator10setRegPairEhth @29
    _ZN15PNPZ80Simulator13getWordWithPCEv @30
    _ZN15PNPZ80Simulator13processOpcodeEv @31
    _ZN15PNPZ80Simulator14getAlternateAFEv @32
    _ZN15PNPZ80Simulator14getAlternateBCEv @33
    _ZN15PNPZ80Simulator14getAlternateDEEv @34
    _ZN15PNPZ80Simulator14getAlternateHLEv @35
    _ZN15PNPZ80Simulator14setAlternateAFEt @36
    _ZN15PNPZ80Simulator14setAlternateBCEt @37
    _ZN15PNPZ80Simulator14setAlternateDEEt @38
    _ZN15PNPZ80Simulator14setAlternateHLEt @39
    _ZN15PNPZ80Simulator15getMainRegisterEh @40
    _ZN15PNPZ80Simulator26getMostSignificantRegisterEh @41
    _ZN15PNPZ80Simulator27getLeastSignificantRegisterEh @42
    _ZN15PNPZ80Simulator3popEv @43
    _ZN15PNPZ80Simulator4initEv @44
    _ZN15PNPZ80Simulator4pushEt @45
    _ZN15PNPZ80Simulator5getAFEv @46
    _ZN15PNPZ80Simulator5getBCEv @47
    _ZN15PNPZ80Simulator5getDEEv @48
    _ZN15PNPZ80Simulator5getHLEv @49
    _ZN15PNPZ80Simulator5getIXEv @50
    _ZN15PNPZ80Simulator5getIYEv @51
    _ZN15PNPZ80Simulator5getSPEv @52
    _ZN15PNPZ80Simulator5setAFEt @53
    _ZN15PNPZ80Simulator5setBCEt @54
    _ZN15PNPZ80Simulator5setDEEt @55
    _ZN15PNPZ80Simulator5setHLEt @56
    _ZN15PNPZ80Simulator5setIXEt @57
    _ZN15PNPZ80Simulator5setIYEt @58
    _ZN15PNPZ80Simulator5setSPEt @59
    _ZN15PNPZ80Simulator7b_splitEhPhS0_S0_S0_S0_S0_ @60
    _ZN15PNPZ80Simulator7emulateEj @61
    _ZN15PNPZ80Simulator9getMainAFEv @62
    _ZN15PNPZ80Simulator9getMainBCEv @63
    _ZN15PNPZ80Simulator9getMainDEEv @64
    _ZN15PNPZ80Simulator9getMainHLEv @65
    _ZN15PNPZ80Simulator9setMainAFEt @66
    _ZN15PNPZ80Simulator9setMainBCEt @67
    _ZN15PNPZ80Simulator9setMainDEEt @68
    _ZN15PNPZ80Simulator9setMainHLEt @69
    _ZN15PNPZ80SimulatorC1EP9PNPZ80Ram @70
    _ZN15PNPZ80SimulatorC2EP9PNPZ80Ram @71
    _ZN15PNPZ80SimulatorD0Ev @72
    _ZN15PNPZ80SimulatorD1Ev @73
    _ZN15PNPZ80SimulatorD2Ev @74
    _ZN9PNPZ80Ram12doesOverflowEt @75
    _ZN9PNPZ80Ram4readEt @76
    _ZN9PNPZ80Ram5writeEth @77
    _ZN9PNPZ80Ram8readWordEt @78
    _ZN9PNPZ80Ram9getBufferEv @79
    _ZN9PNPZ80Ram9writeWordEtt @80
    _ZN9PNPZ80RamC1Et @81
    _ZN9PNPZ80RamC2Et @82
    _ZN9PNPZ80RamD0Ev @83
    _ZN9PNPZ80RamD1Ev @84
    _ZN9PNPZ80RamD2Ev @85
    _ZTI14PNPZ80Hardware @86 DATA
    _ZTI14PNPZ80Instance @87 DATA
    _ZTI15PNPZ80Simulator @88 DATA
    _ZTI9PNPZ80Ram @89 DATA
    _ZTV14PNPZ80Hardware @90 DATA
    _ZTV14PNPZ80Instance @91 DATA
    _ZTV15PNPZ80Simulator @92 DATA
    _ZTV9PNPZ80Ram @93 DATA
